; Function Attrs: nounwind uwtable
define dso_local ptr @GetPublicationSchemas(i32 noundef %0) local_unnamed_addr #0 {
  %2 = alloca %struct.ScanKeyData, align 8
  call void @llvm.lifetime.start.p0(i64 72, ptr nonnull %2) #6
  %3 = tail call ptr @table_open(i32 noundef 6237, i32 noundef 1) #6
  %4 = zext i32 %0 to i64
  call void @ScanKeyInit(ptr noundef nonnull %2, i16 noundef signext 2, i16 noundef zeroext 3, i32 noundef 184, i64 noundef %4) #6
  %5 = call ptr @systable_beginscan(ptr noundef %3, i32 noundef 6239, i1 noundef zeroext true, ptr noundef null, i32 noundef 1, ptr noundef nonnull %2) #6
  %6 = call ptr @systable_getnext(ptr noundef %5) #6
  %.not9 = icmp eq ptr %6, null
  br i1 %.not9, label %._crit_edge, label %.lr.ph

.lr.ph:                                           ; preds = %1, %.lr.ph
  %7 = phi ptr [ %16, %.lr.ph ], [ %6, %1 ]
  %.010 = phi ptr [ %15, %.lr.ph ], [ null, %1 ]
  %8 = getelementptr i8, ptr %7, i64 16
  %.val = load ptr, ptr %8, align 8
  %9 = getelementptr inbounds nuw i8, ptr %.val, i64 22
  %10 = load i8, ptr %9, align 2
  %11 = zext i8 %10 to i64
  %12 = getelementptr inbounds nuw i8, ptr %.val, i64 %11
  %13 = getelementptr inbounds nuw i8, ptr %12, i64 8
  %14 = load i32, ptr %13, align 4
  %15 = call ptr @lappend_oid(ptr noundef %.010, i32 noundef %14) #6
  %16 = call ptr @systable_getnext(ptr noundef %5) #6
  %.not = icmp eq ptr %16, null
  br i1 %.not, label %._crit_edge, label %.lr.ph, !llvm.loop !18

._crit_edge:                                      ; preds = %.lr.ph, %1
  %.0.lcssa = phi ptr [ null, %1 ], [ %15, %.lr.ph ]
  call void @systable_endscan(ptr noundef %5) #6
  call void @table_close(ptr noundef %3, i32 noundef 1) #6
  call void @llvm.lifetime.end.p0(i64 72, ptr nonnull %2) #6
  ret ptr %.0.lcssa
}